target datalayout = "e-m:e-p270:32:32-p271:32:32-p272:64:64-i64:64-i128:128-f80:128-n8:16:32:64-S128"
target triple = "x86_64-unknown-linux-gnu"

%struct.TimersState = type { i64, i64, %struct.QemuSeqLock, %struct.QemuSpin, i16, i16, i64, i64, i64, i64, i64, ptr, ptr, ptr }
%struct.QemuSeqLock = type { i32 }
%struct.QemuSpin = type { i32 }
%struct.QemuLockable = type { ptr, ptr, ptr }
%struct.CPUState = type { %struct.DeviceState, ptr, i32, i32, ptr, i32, i8, i8, ptr, i8, i8, i8, i8, i8, i8, i8, i8, i32, i32, i32, i32, i64, i64, i64, [1 x %struct.__jmp_buf_tag], %struct.QemuMutex, %struct.anon, ptr, i32, ptr, ptr, ptr, ptr, i32, i32, %union.anon, %union.anon.0, %union.anon.1, ptr, ptr, i64, i32, ptr, ptr, ptr, i32, i64, i32, %struct.QemuLockCnt, [1 x i64], ptr, i32, i32, i32, i32, i32, ptr, i8, i8, i64, i8, i8, ptr, [8 x i8], [0 x i8], %struct.CPUNegativeOffsetState }
%struct.DeviceState = type { %struct.Object, ptr, ptr, i8, i8, i64, ptr, i32, i8, ptr, %struct.NamedGPIOListHead, %struct.NamedClockListHead, %struct.BusStateHead, i32, i32, i32, %struct.ResettableState, ptr, %struct.MemReentrancyGuard }
%struct.Object = type { ptr, ptr, ptr, i32, ptr }
%struct.NamedGPIOListHead = type { ptr }
%struct.NamedClockListHead = type { ptr }
%struct.BusStateHead = type { ptr }
%struct.ResettableState = type { i32, i8, i8 }
%struct.MemReentrancyGuard = type { i8 }
%struct.__jmp_buf_tag = type { [8 x i64], i32, %struct.__sigset_t }
%struct.__sigset_t = type { [16 x i64] }
%struct.QemuMutex = type { %union.pthread_mutex_t, i8 }
%union.pthread_mutex_t = type { %struct.__pthread_mutex_s }
%struct.__pthread_mutex_s = type { i32, i32, i32, i32, i32, i16, i16, %struct.__pthread_internal_list }
%struct.__pthread_internal_list = type { ptr, ptr }
%struct.anon = type { ptr, ptr }
%union.anon = type { %struct.QTailQLink }
%struct.QTailQLink = type { ptr, ptr }
%union.anon.0 = type { %struct.QTailQLink }
%union.anon.1 = type { %struct.QTailQLink }
%struct.QemuLockCnt = type { i32 }
%struct.CPUNegativeOffsetState = type { %struct.CPUTLB, %union.IcountDecr, i8, [11 x i8] }
%struct.CPUTLB = type { %struct.CPUTLBCommon, [16 x %struct.CPUTLBDesc], [16 x %struct.CPUTLBDescFast] }
%struct.CPUTLBCommon = type { %struct.QemuSpin, i16, i64, i64, i64 }
%struct.CPUTLBDesc = type { i64, i64, i64, i64, i64, i64, [8 x %union.CPUTLBEntry], [8 x %struct.CPUTLBEntryFull], ptr }
%union.CPUTLBEntry = type { %struct.anon.2 }
%struct.anon.2 = type { i64, i64, i64, i64 }
%struct.CPUTLBEntryFull = type { i64, i64, %struct.MemTxAttrs, i8, i8, [3 x i8], %union.anon.3 }
%struct.MemTxAttrs = type { i32 }
%union.anon.3 = type { %struct.anon.4 }
%struct.anon.4 = type { i8, i8, i8 }
%struct.CPUTLBDescFast = type { i64, ptr }
%union.IcountDecr = type { i32 }
%struct.anon.5 = type { i16, i16 }

@timers_state = external global %struct.TimersState, align 8
@.str.12 = private unnamed_addr constant [101 x i8] c"/home/dtcxzyw/WorkSpace/Projects/compilers/llvm-opt-benchmark/bench/qemu/qemu/include/qemu/seqlock.h\00", align 1
@__func__.seqlock_write_begin = private unnamed_addr constant [20 x i8] c"seqlock_write_begin\00", align 1
@__func__.seqlock_write_end = private unnamed_addr constant [18 x i8] c"seqlock_write_end\00", align 1

; Function Attrs: nounwind sspstrong uwtable
define internal void @qemu_lockable_unlock(ptr noundef %x) #0 {
entry:
  %x.addr = alloca ptr, align 8
  store ptr %x, ptr %x.addr, align 8
  %0 = load ptr, ptr %x.addr, align 8
  %unlock = getelementptr inbounds %struct.QemuLockable, ptr %0, i32 0, i32 2
  %1 = load ptr, ptr %unlock, align 8
  %2 = load ptr, ptr %x.addr, align 8
  %object = getelementptr inbounds %struct.QemuLockable, ptr %2, i32 0, i32 0
  %3 = load ptr, ptr %object, align 8
  call void %1(ptr noundef %3)
  ret void
}

; Function Attrs: nounwind sspstrong uwtable
define internal void @seqlock_write_end(ptr noundef %sl) #0 {
entry:
  %sl.addr = alloca ptr, align 8
  %.atomictmp = alloca i32, align 4
  store ptr %sl, ptr %sl.addr, align 8
  call void asm sideeffect "", "~{memory},~{dirflag},~{fpsr},~{flags}"() #8, !srcloc !15
  fence release
  br label %do.body

do.body:                                          ; preds = %entry
  br label %while.cond

while.cond:                                       ; preds = %do.end, %do.body
  br i1 false, label %while.body, label %while.end

while.body:                                       ; preds = %while.cond
  br label %do.body1

do.body1:                                         ; preds = %while.body
  call void @g_assertion_message_expr(ptr noundef null, ptr noundef @.str.12, i32 noundef 46, ptr noundef @__func__.seqlock_write_end, ptr noundef null) #7
  unreachable

do.end:                                           ; No predecessors!
  br label %while.cond

while.end:                                        ; preds = %while.cond
  %0 = load ptr, ptr %sl.addr, align 8
  %sequence = getelementptr inbounds %struct.QemuSeqLock, ptr %0, i32 0, i32 0
  %1 = load ptr, ptr %sl.addr, align 8
  %sequence2 = getelementptr inbounds %struct.QemuSeqLock, ptr %1, i32 0, i32 0
  %2 = load i32, ptr %sequence2, align 4
  %add = add i32 %2, 1
  store i32 %add, ptr %.atomictmp, align 4
  %3 = load i32, ptr %.atomictmp, align 4
  store atomic i32 %3, ptr %sequence monotonic, align 4
  br label %do.end3

do.end3:                                          ; preds = %while.end
  ret void
}

; Function Attrs: nounwind sspstrong uwtable
define internal i64 @icount_get_executed(ptr noundef %cpu) #0 {
entry:
  %cpu.addr = alloca ptr, align 8
  store ptr %cpu, ptr %cpu.addr, align 8
  %0 = load ptr, ptr %cpu.addr, align 8
  %icount_budget = getelementptr inbounds %struct.CPUState, ptr %0, i32 0, i32 21
  %1 = load i64, ptr %icount_budget, align 16
  %2 = load ptr, ptr %cpu.addr, align 8
  %neg = getelementptr inbounds %struct.CPUState, ptr %2, i32 0, i32 65
  %icount_decr = getelementptr inbounds %struct.CPUNegativeOffsetState, ptr %neg, i32 0, i32 1
  %low = getelementptr inbounds %struct.anon.5, ptr %icount_decr, i32 0, i32 0
  %3 = load i16, ptr %low, align 16
  %conv = zext i16 %3 to i64
  %4 = load ptr, ptr %cpu.addr, align 8
  %icount_extra = getelementptr inbounds %struct.CPUState, ptr %4, i32 0, i32 22
  %5 = load i64, ptr %icount_extra, align 8
  %add = add i64 %conv, %5
  %sub = sub i64 %1, %add
  ret i64 %sub
}

; Function Attrs: nounwind sspstrong uwtable
define internal void @seqlock_write_begin(ptr noundef %sl) #0 {
entry:
  %sl.addr = alloca ptr, align 8
  %.atomictmp = alloca i32, align 4
  store ptr %sl, ptr %sl.addr, align 8
  br label %do.body

do.body:                                          ; preds = %entry
  br label %while.cond

while.cond:                                       ; preds = %do.end, %do.body
  br i1 false, label %while.body, label %while.end

while.body:                                       ; preds = %while.cond
  br label %do.body1

do.body1:                                         ; preds = %while.body
  call void @g_assertion_message_expr(ptr noundef null, ptr noundef @.str.12, i32 noundef 35, ptr noundef @__func__.seqlock_write_begin, ptr noundef null) #7
  unreachable

do.end:                                           ; No predecessors!
  br label %while.cond

while.end:                                        ; preds = %while.cond
  %0 = load ptr, ptr %sl.addr, align 8
  %sequence = getelementptr inbounds %struct.QemuSeqLock, ptr %0, i32 0, i32 0
  %1 = load ptr, ptr %sl.addr, align 8
  %sequence2 = getelementptr inbounds %struct.QemuSeqLock, ptr %1, i32 0, i32 0
  %2 = load i32, ptr %sequence2, align 4
  %add = add i32 %2, 1
  store i32 %add, ptr %.atomictmp, align 4
  %3 = load i32, ptr %.atomictmp, align 4
  store atomic i32 %3, ptr %sequence monotonic, align 4
  br label %do.end3

do.end3:                                          ; preds = %while.end
  call void asm sideeffect "", "~{memory},~{dirflag},~{fpsr},~{flags}"() #8, !srcloc !14
  fence release
  ret void
}

; Function Attrs: nounwind sspstrong uwtable
define internal void @qemu_lockable_lock(ptr noundef %x) #0 {
entry:
  %x.addr = alloca ptr, align 8
  store ptr %x, ptr %x.addr, align 8
  %0 = load ptr, ptr %x.addr, align 8
  %lock = getelementptr inbounds %struct.QemuLockable, ptr %0, i32 0, i32 1
  %1 = load ptr, ptr %lock, align 8
  %2 = load ptr, ptr %x.addr, align 8
  %object = getelementptr inbounds %struct.QemuLockable, ptr %2, i32 0, i32 0
  %3 = load ptr, ptr %object, align 8
  call void %1(ptr noundef %3)
  ret void
}

; Function Attrs: nounwind sspstrong uwtable
define internal void @seqlock_write_unlock_impl(ptr noundef %sl, ptr noundef %lock) #0 {
entry:
  %sl.addr = alloca ptr, align 8
  %lock.addr = alloca ptr, align 8
  store ptr %sl, ptr %sl.addr, align 8
  store ptr %lock, ptr %lock.addr, align 8
  %0 = load ptr, ptr %sl.addr, align 8
  call void @seqlock_write_end(ptr noundef %0)
  %1 = load ptr, ptr %lock.addr, align 8
  call void @qemu_lockable_unlock(ptr noundef %1)
  ret void
}

; Function Attrs: nounwind sspstrong uwtable
define internal void @icount_update_locked(ptr noundef %cpu) #0 {
entry:
  %cpu.addr = alloca ptr, align 8
  %executed = alloca i64, align 8
  %.atomictmp = alloca i64, align 8
  store ptr %cpu, ptr %cpu.addr, align 8
  %0 = load ptr, ptr %cpu.addr, align 8
  %call = call i64 @icount_get_executed(ptr noundef %0)
  store i64 %call, ptr %executed, align 8
  %1 = load i64, ptr %executed, align 8
  %2 = load ptr, ptr %cpu.addr, align 8
  %icount_budget = getelementptr inbounds %struct.CPUState, ptr %2, i32 0, i32 21
  %3 = load i64, ptr %icount_budget, align 16
  %sub = sub i64 %3, %1
  store i64 %sub, ptr %icount_budget, align 16
  %4 = getelementptr inbounds %struct.TimersState, ptr @timers_state, i32 0, i32 10
  %5 = load i64, ptr %4, align 8
  %6 = load i64, ptr %executed, align 8
  %add = add i64 %5, %6
  store i64 %add, ptr %.atomictmp, align 8
  %7 = load i64, ptr %.atomictmp, align 8
  %8 = getelementptr inbounds %struct.TimersState, ptr @timers_state, i32 0, i32 10
  store atomic i64 %7, ptr %8 monotonic, align 8
  ret void
}

; Function Attrs: nounwind sspstrong uwtable
define internal void @seqlock_write_lock_impl(ptr noundef %sl, ptr noundef %lock) #0 {
entry:
  %sl.addr = alloca ptr, align 8
  %lock.addr = alloca ptr, align 8
  store ptr %sl, ptr %sl.addr, align 8
  store ptr %lock, ptr %lock.addr, align 8
  %0 = load ptr, ptr %lock.addr, align 8
  call void @qemu_lockable_lock(ptr noundef %0)
  %1 = load ptr, ptr %sl.addr, align 8
  call void @seqlock_write_begin(ptr noundef %1)
  ret void
}

; Function Attrs: nounwind sspstrong uwtable
define dso_local void @icount_update(ptr noundef %cpu) #0 {
entry:
  %x.addr.i6 = alloca ptr, align 8
  %lockable.addr.i7 = alloca ptr, align 8
  %x.addr.i = alloca ptr, align 8
  %lockable.addr.i = alloca ptr, align 8
  %cpu.addr = alloca ptr, align 8
  %.compoundliteral = alloca %struct.QemuLockable, align 8
  %.compoundliteral1 = alloca %struct.QemuLockable, align 8
  store ptr %cpu, ptr %cpu.addr, align 8
  %object = getelementptr inbounds %struct.QemuLockable, ptr %.compoundliteral, i32 0, i32 0
  %0 = getelementptr inbounds %struct.TimersState, ptr @timers_state, i32 0, i32 3
  store ptr %0, ptr %object, align 8
  %lock = getelementptr inbounds %struct.QemuLockable, ptr %.compoundliteral, i32 0, i32 1
  store ptr @qemu_spin_lock, ptr %lock, align 8
  %unlock = getelementptr inbounds %struct.QemuLockable, ptr %.compoundliteral, i32 0, i32 2
  store ptr @qemu_spin_unlock, ptr %unlock, align 8
  %1 = getelementptr inbounds %struct.TimersState, ptr @timers_state, i32 0, i32 3
  store ptr %1, ptr %x.addr.i6, align 8
  store ptr %.compoundliteral, ptr %lockable.addr.i7, align 8
  %2 = load ptr, ptr %x.addr.i6, align 8
  %tobool.i8 = icmp ne ptr %2, null
  br i1 %tobool.i8, label %cond.true.i11, label %cond.false.i9

cond.true.i11:                                    ; preds = %entry
  %3 = load ptr, ptr %lockable.addr.i7, align 8
  br label %qemu_make_lockable.exit12

cond.false.i9:                                    ; preds = %entry
  br label %qemu_make_lockable.exit12

qemu_make_lockable.exit12:                        ; preds = %cond.false.i9, %cond.true.i11
  %cond.i10 = phi ptr [ %3, %cond.true.i11 ], [ null, %cond.false.i9 ]
  %4 = getelementptr inbounds %struct.TimersState, ptr @timers_state, i32 0, i32 2
  call void @seqlock_write_lock_impl(ptr noundef %4, ptr noundef %cond.i10)
  %5 = load ptr, ptr %cpu.addr, align 8
  call void @icount_update_locked(ptr noundef %5)
  %object2 = getelementptr inbounds %struct.QemuLockable, ptr %.compoundliteral1, i32 0, i32 0
  %6 = getelementptr inbounds %struct.TimersState, ptr @timers_state, i32 0, i32 3
  store ptr %6, ptr %object2, align 8
  %lock3 = getelementptr inbounds %struct.QemuLockable, ptr %.compoundliteral1, i32 0, i32 1
  store ptr @qemu_spin_lock, ptr %lock3, align 8
  %unlock4 = getelementptr inbounds %struct.QemuLockable, ptr %.compoundliteral1, i32 0, i32 2
  store ptr @qemu_spin_unlock, ptr %unlock4, align 8
  %7 = getelementptr inbounds %struct.TimersState, ptr @timers_state, i32 0, i32 3
  store ptr %7, ptr %x.addr.i, align 8
  store ptr %.compoundliteral1, ptr %lockable.addr.i, align 8
  %8 = load ptr, ptr %x.addr.i, align 8
  %tobool.i = icmp ne ptr %8, null
  br i1 %tobool.i, label %cond.true.i, label %cond.false.i

cond.true.i:                                      ; preds = %qemu_make_lockable.exit12
  %9 = load ptr, ptr %lockable.addr.i, align 8
  br label %qemu_make_lockable.exit

cond.false.i:                                     ; preds = %qemu_make_lockable.exit12
  br label %qemu_make_lockable.exit

qemu_make_lockable.exit:                          ; preds = %cond.false.i, %cond.true.i
  %cond.i = phi ptr [ %9, %cond.true.i ], [ null, %cond.false.i ]
  %10 = getelementptr inbounds %struct.TimersState, ptr @timers_state, i32 0, i32 2
  call void @seqlock_write_unlock_impl(ptr noundef %10, ptr noundef %cond.i)
  ret void
}