; Function Attrs: nounwind sspstrong uwtable
define dso_local void @icount_update(ptr noundef captures(none) %cpu) local_unnamed_addr #0 {
entry:
  %0 = atomicrmw xchg ptr getelementptr inbounds nuw (i8, ptr @timers_state, i64 20), i32 1 seq_cst, align 4
  %tobool.not3.i = icmp eq i32 %0, 0
  br i1 %tobool.not3.i, label %qemu_spin_lock.exit, label %while.cond6.preheader.i

while.cond.loopexit.i:                            ; preds = %while.body16.i, %while.cond6.preheader.i
  %1 = atomicrmw xchg ptr getelementptr inbounds nuw (i8, ptr @timers_state, i64 20), i32 1 seq_cst, align 4
  %tobool.not.i = icmp eq i32 %1, 0
  br i1 %tobool.not.i, label %qemu_spin_lock.exit, label %while.cond6.preheader.i, !llvm.loop !5

while.cond6.preheader.i:                          ; preds = %entry, %while.cond.loopexit.i
  %2 = load atomic i32, ptr getelementptr inbounds nuw (i8, ptr @timers_state, i64 20) monotonic, align 4
  %tobool15.not2.i = icmp eq i32 %2, 0
  br i1 %tobool15.not2.i, label %while.cond.loopexit.i, label %while.body16.i

while.body16.i:                                   ; preds = %while.cond6.preheader.i, %while.body16.i
  tail call void asm sideeffect "rep; nop", "~{memory},~{dirflag},~{fpsr},~{flags}"() #9, !srcloc !7
  %3 = load atomic i32, ptr getelementptr inbounds nuw (i8, ptr @timers_state, i64 20) monotonic, align 4
  %tobool15.not.i = icmp eq i32 %3, 0
  br i1 %tobool15.not.i, label %while.cond.loopexit.i, label %while.body16.i, !llvm.loop !8

qemu_spin_lock.exit:                              ; preds = %while.cond.loopexit.i, %entry
  %4 = load i32, ptr getelementptr inbounds nuw (i8, ptr @timers_state, i64 16), align 8
  %add.i.i = add i32 %4, 1
  store atomic i32 %add.i.i, ptr getelementptr inbounds nuw (i8, ptr @timers_state, i64 16) monotonic, align 8
  tail call void asm sideeffect "", "~{memory},~{dirflag},~{fpsr},~{flags}"() #9, !srcloc !9
  fence release
  %icount_budget.i.i = getelementptr inbounds nuw i8, ptr %cpu, i64 224
  %5 = load i64, ptr %icount_budget.i.i, align 16
  %icount_decr.i.i = getelementptr inbounds nuw i8, ptr %cpu, i64 10160
  %6 = load i16, ptr %icount_decr.i.i, align 16
  %conv.i.i = zext i16 %6 to i64
  %icount_extra.i.i = getelementptr inbounds nuw i8, ptr %cpu, i64 232
  %7 = load i64, ptr %icount_extra.i.i, align 8
  %8 = add i64 %7, %conv.i.i
  %sub.i.i = sub i64 %5, %8
  store i64 %8, ptr %icount_budget.i.i, align 16
  %9 = load i64, ptr getelementptr inbounds nuw (i8, ptr @timers_state, i64 64), align 8
  %add.i = add i64 %sub.i.i, %9
  store atomic i64 %add.i, ptr getelementptr inbounds nuw (i8, ptr @timers_state, i64 64) monotonic, align 8
  tail call void asm sideeffect "", "~{memory},~{dirflag},~{fpsr},~{flags}"() #9, !srcloc !10
  fence release
  %10 = load i32, ptr getelementptr inbounds nuw (i8, ptr @timers_state, i64 16), align 8
  %add.i.i3 = add i32 %10, 1
  store atomic i32 %add.i.i3, ptr getelementptr inbounds nuw (i8, ptr @timers_state, i64 16) monotonic, align 8
  store atomic i32 0, ptr getelementptr inbounds nuw (i8, ptr @timers_state, i64 20) release, align 4
  ret void
}